target datalayout = "e-m:e-p270:32:32-p271:32:32-p272:64:64-i64:64-i128:128-f80:128-n8:16:32:64-S128"
target triple = "x86_64-pc-linux-gnu"

%class.colvarproxy_replicas = type { ptr, ptr, i32, i32 }

@_ZTV20colvarproxy_replicas = unnamed_addr constant { [11 x ptr] } { [11 x ptr] [ptr null, ptr @_ZTI20colvarproxy_replicas, ptr @_ZN20colvarproxy_replicasD1Ev, ptr @_ZN20colvarproxy_replicasD0Ev, ptr @_ZN20colvarproxy_replicas29set_replicas_mpi_communicatorEPv, ptr @_ZN20colvarproxy_replicas22check_replicas_enabledEv, ptr @_ZN20colvarproxy_replicas13replica_indexEv, ptr @_ZN20colvarproxy_replicas12num_replicasEv, ptr @_ZN20colvarproxy_replicas20replica_comm_barrierEv, ptr @_ZN20colvarproxy_replicas17replica_comm_recvEPcii, ptr @_ZN20colvarproxy_replicas17replica_comm_sendEPcii] }, align 8
@_ZTI20colvarproxy_replicas = constant { ptr, ptr } { ptr getelementptr inbounds (ptr, ptr @_ZTVN10__cxxabiv117__class_type_infoE, i64 2), ptr @_ZTS20colvarproxy_replicas }, align 8
@_ZTVN10__cxxabiv117__class_type_infoE = external global [0 x ptr]
@_ZTS20colvarproxy_replicas = constant [23 x i8] c"20colvarproxy_replicas\00", align 1

@_ZN20colvarproxy_replicasC1Ev = unnamed_addr alias void (ptr), ptr @_ZN20colvarproxy_replicasC2Ev
@_ZN20colvarproxy_replicasD1Ev = unnamed_addr alias void (ptr), ptr @_ZN20colvarproxy_replicasD2Ev

; Function Attrs: mustprogress nounwind uwtable
define void @_ZN20colvarproxy_replicasD0Ev(ptr noundef nonnull align 8 dereferenceable(24) %0) unnamed_addr #0 align 2 {
  %2 = alloca ptr, align 8
  store ptr %0, ptr %2, align 8, !tbaa !4
  %3 = load ptr, ptr %2, align 8
  call void @_ZN20colvarproxy_replicasD1Ev(ptr noundef nonnull align 8 dereferenceable(24) %3) #2
  call void @_ZdlPvm(ptr noundef %3, i64 noundef 24) #3
  ret void
}

; Function Attrs: mustprogress nounwind uwtable
define void @_ZN20colvarproxy_replicas29set_replicas_mpi_communicatorEPv(ptr noundef nonnull align 8 dereferenceable(24) %0, ptr noundef %1) unnamed_addr #0 align 2 {
  %3 = alloca ptr, align 8
  %4 = alloca ptr, align 8
  store ptr %0, ptr %3, align 8, !tbaa !4
  store ptr %1, ptr %4, align 8, !tbaa !9
  %5 = load ptr, ptr %3, align 8
  %6 = load ptr, ptr %4, align 8, !tbaa !9
  %7 = getelementptr inbounds nuw %class.colvarproxy_replicas, ptr %5, i32 0, i32 1
  store ptr %6, ptr %7, align 8, !tbaa !10
  ret void
}

; Function Attrs: mustprogress nounwind uwtable
define noundef i32 @_ZN20colvarproxy_replicas22check_replicas_enabledEv(ptr noundef nonnull align 8 dereferenceable(24) %0) unnamed_addr #0 align 2 {
  %2 = alloca ptr, align 8
  store ptr %0, ptr %2, align 8, !tbaa !4
  ret i32 2
}

; Function Attrs: mustprogress nounwind uwtable
define noundef i32 @_ZN20colvarproxy_replicas13replica_indexEv(ptr noundef nonnull align 8 dereferenceable(24) %0) unnamed_addr #0 align 2 {
  %2 = alloca ptr, align 8
  store ptr %0, ptr %2, align 8, !tbaa !4
  %3 = load ptr, ptr %2, align 8
  %4 = getelementptr inbounds nuw %class.colvarproxy_replicas, ptr %3, i32 0, i32 2
  %5 = load i32, ptr %4, align 8, !tbaa !13
  ret i32 %5
}

; Function Attrs: mustprogress nounwind uwtable
define noundef i32 @_ZN20colvarproxy_replicas12num_replicasEv(ptr noundef nonnull align 8 dereferenceable(24) %0) unnamed_addr #0 align 2 {
  %2 = alloca ptr, align 8
  store ptr %0, ptr %2, align 8, !tbaa !4
  %3 = load ptr, ptr %2, align 8
  %4 = getelementptr inbounds nuw %class.colvarproxy_replicas, ptr %3, i32 0, i32 3
  %5 = load i32, ptr %4, align 4, !tbaa !14
  ret i32 %5
}

; Function Attrs: mustprogress nounwind uwtable
define void @_ZN20colvarproxy_replicas20replica_comm_barrierEv(ptr noundef nonnull align 8 dereferenceable(24) %0) unnamed_addr #0 align 2 {
  %2 = alloca ptr, align 8
  store ptr %0, ptr %2, align 8, !tbaa !4
  ret void
}

; Function Attrs: mustprogress nounwind uwtable
define noundef i32 @_ZN20colvarproxy_replicas17replica_comm_recvEPcii(ptr noundef nonnull align 8 dereferenceable(24) %0, ptr noundef %1, i32 noundef %2, i32 noundef %3) unnamed_addr #0 align 2 {
  %5 = alloca ptr, align 8
  %6 = alloca ptr, align 8
  %7 = alloca i32, align 4
  %8 = alloca i32, align 4
  store ptr %0, ptr %5, align 8, !tbaa !4
  store ptr %1, ptr %6, align 8, !tbaa !15
  store i32 %2, ptr %7, align 4, !tbaa !17
  store i32 %3, ptr %8, align 4, !tbaa !17
  ret i32 2
}

; Function Attrs: mustprogress nounwind uwtable
define noundef i32 @_ZN20colvarproxy_replicas17replica_comm_sendEPcii(ptr noundef nonnull align 8 dereferenceable(24) %0, ptr noundef %1, i32 noundef %2, i32 noundef %3) unnamed_addr #0 align 2 {
  %5 = alloca ptr, align 8
  %6 = alloca ptr, align 8
  %7 = alloca i32, align 4
  %8 = alloca i32, align 4
  store ptr %0, ptr %5, align 8, !tbaa !4
  store ptr %1, ptr %6, align 8, !tbaa !15
  store i32 %2, ptr %7, align 4, !tbaa !17
  store i32 %3, ptr %8, align 4, !tbaa !17
  ret i32 2
}

; Function Attrs: mustprogress nounwind uwtable
define void @_ZN20colvarproxy_replicasC2Ev(ptr noundef nonnull align 8 dereferenceable(24) %0) unnamed_addr #0 align 2 {
  %2 = alloca ptr, align 8
  store ptr %0, ptr %2, align 8, !tbaa !4
  %3 = load ptr, ptr %2, align 8
  store ptr getelementptr inbounds inrange(-16, 72) ({ [11 x ptr] }, ptr @_ZTV20colvarproxy_replicas, i32 0, i32 0, i32 2), ptr %3, align 8, !tbaa !18
  %4 = getelementptr inbounds nuw %class.colvarproxy_replicas, ptr %3, i32 0, i32 2
  store i32 0, ptr %4, align 8, !tbaa !13
  %5 = getelementptr inbounds nuw %class.colvarproxy_replicas, ptr %3, i32 0, i32 3
  store i32 1, ptr %5, align 4, !tbaa !14
  ret void
}

; Function Attrs: mustprogress nounwind uwtable
define void @_ZN20colvarproxy_replicasD2Ev(ptr noundef nonnull align 8 dereferenceable(24) %0) unnamed_addr #0 align 2 {
  %2 = alloca ptr, align 8
  store ptr %0, ptr %2, align 8, !tbaa !4
  ret void
}

; Function Attrs: nobuiltin nounwind
declare void @_ZdlPvm(ptr noundef, i64 noundef) #1


!llvm.module.flags = !{!0, !1, !2, !3}

!0 = !{i32 1, !"wchar_size", i32 4}
!1 = !{i32 7, !"openmp", i32 51}
!2 = !{i32 8, !"PIC Level", i32 2}
!3 = !{i32 7, !"uwtable", i32 2}
!4 = !{!5, !5, i64 0}
!5 = !{!"p1 _ZTS20colvarproxy_replicas", !6, i64 0}
!6 = !{!"any pointer", !7, i64 0}
!7 = !{!"omnipotent char", !8, i64 0}
!8 = !{!"Simple C++ TBAA"}
!9 = !{!6, !6, i64 0}
!10 = !{!11, !6, i64 8}
!11 = !{!"_ZTS20colvarproxy_replicas", !6, i64 8, !12, i64 16, !12, i64 20}
!12 = !{!"int", !7, i64 0}
!13 = !{!11, !12, i64 16}
!14 = !{!11, !12, i64 20}
!15 = !{!16, !16, i64 0}
!16 = !{!"p1 omnipotent char", !6, i64 0}
!17 = !{!12, !12, i64 0}
!18 = !{!19, !19, i64 0}
!19 = !{!"vtable pointer", !8, i64 0}
