; ModuleID = 'bench/gromacs/original/colvarproxy_replicas.ll'
source_filename = "bench/gromacs/original/colvarproxy_replicas.ll"
target datalayout = "e-m:e-p270:32:32-p271:32:32-p272:64:64-i64:64-i128:128-f80:128-n8:16:32:64-S128"
target triple = "x86_64-pc-linux-gnu"

@_ZTV20colvarproxy_replicas = unnamed_addr constant { [11 x ptr] } { [11 x ptr] [ptr null, ptr @_ZTI20colvarproxy_replicas, ptr @_ZN20colvarproxy_replicasD1Ev, ptr @_ZN20colvarproxy_replicasD0Ev, ptr @_ZN20colvarproxy_replicas29set_replicas_mpi_communicatorEPv, ptr @_ZN20colvarproxy_replicas22check_replicas_enabledEv, ptr @_ZN20colvarproxy_replicas13replica_indexEv, ptr @_ZN20colvarproxy_replicas12num_replicasEv, ptr @_ZN20colvarproxy_replicas20replica_comm_barrierEv, ptr @_ZN20colvarproxy_replicas17replica_comm_recvEPcii, ptr @_ZN20colvarproxy_replicas17replica_comm_sendEPcii] }, align 8
@_ZTI20colvarproxy_replicas = constant { ptr, ptr } { ptr getelementptr inbounds (ptr, ptr @_ZTVN10__cxxabiv117__class_type_infoE, i64 2), ptr @_ZTS20colvarproxy_replicas }, align 8
@_ZTVN10__cxxabiv117__class_type_infoE = external global [0 x ptr]
@_ZTS20colvarproxy_replicas = constant [23 x i8] c"20colvarproxy_replicas\00", align 1

@_ZN20colvarproxy_replicasC1Ev = unnamed_addr alias void (ptr), ptr @_ZN20colvarproxy_replicasC2Ev
@_ZN20colvarproxy_replicasD1Ev = unnamed_addr alias void (ptr), ptr @_ZN20colvarproxy_replicasD2Ev

; Function Attrs: mustprogress nounwind uwtable
define void @_ZN20colvarproxy_replicasD0Ev(ptr noundef nonnull align 8 dereferenceable(24) %0) unnamed_addr #0 align 2 {
  tail call void @_ZN20colvarproxy_replicasD1Ev(ptr noundef nonnull align 8 dereferenceable(24) %0) #5
  tail call void @_ZdlPvm(ptr noundef nonnull %0, i64 noundef 24) #6
  ret void
}

; Function Attrs: mustprogress nofree norecurse nosync nounwind willreturn memory(argmem: write) uwtable
define void @_ZN20colvarproxy_replicas29set_replicas_mpi_communicatorEPv(ptr noundef nonnull writeonly align 8 captures(none) dereferenceable(24) initializes((8, 16)) %0, ptr noundef %1) unnamed_addr #1 align 2 {
  %3 = getelementptr inbounds nuw i8, ptr %0, i64 8
  store ptr %1, ptr %3, align 8, !tbaa !4
  ret void
}

; Function Attrs: mustprogress nofree norecurse nosync nounwind willreturn memory(none) uwtable
define noundef i32 @_ZN20colvarproxy_replicas22check_replicas_enabledEv(ptr nonnull readnone align 8 captures(none) %0) unnamed_addr #2 align 2 {
  ret i32 2
}

; Function Attrs: mustprogress nofree norecurse nosync nounwind willreturn memory(argmem: read) uwtable
define noundef i32 @_ZN20colvarproxy_replicas13replica_indexEv(ptr noundef nonnull readonly align 8 captures(none) dereferenceable(24) %0) unnamed_addr #3 align 2 {
  %2 = getelementptr inbounds nuw i8, ptr %0, i64 16
  %3 = load i32, ptr %2, align 8, !tbaa !10
  ret i32 %3
}

; Function Attrs: mustprogress nofree norecurse nosync nounwind willreturn memory(argmem: read) uwtable
define noundef i32 @_ZN20colvarproxy_replicas12num_replicasEv(ptr noundef nonnull readonly align 8 captures(none) dereferenceable(24) %0) unnamed_addr #3 align 2 {
  %2 = getelementptr inbounds nuw i8, ptr %0, i64 20
  %3 = load i32, ptr %2, align 4, !tbaa !11
  ret i32 %3
}

; Function Attrs: mustprogress nofree norecurse nosync nounwind willreturn memory(none) uwtable
define void @_ZN20colvarproxy_replicas20replica_comm_barrierEv(ptr nonnull readnone align 8 captures(none) %0) unnamed_addr #2 align 2 {
  ret void
}

; Function Attrs: mustprogress nofree norecurse nosync nounwind willreturn memory(none) uwtable
define noundef i32 @_ZN20colvarproxy_replicas17replica_comm_recvEPcii(ptr nonnull readnone align 8 captures(none) %0, ptr readnone captures(none) %1, i32 %2, i32 %3) unnamed_addr #2 align 2 {
  ret i32 2
}

; Function Attrs: mustprogress nofree norecurse nosync nounwind willreturn memory(none) uwtable
define noundef i32 @_ZN20colvarproxy_replicas17replica_comm_sendEPcii(ptr nonnull readnone align 8 captures(none) %0, ptr readnone captures(none) %1, i32 %2, i32 %3) unnamed_addr #2 align 2 {
  ret i32 2
}

; Function Attrs: mustprogress nofree norecurse nosync nounwind willreturn memory(argmem: write) uwtable
define void @_ZN20colvarproxy_replicasC2Ev(ptr noundef nonnull writeonly align 8 captures(none) dereferenceable(24) initializes((0, 8), (16, 24)) %0) unnamed_addr #1 align 2 {
  store ptr getelementptr inbounds nuw inrange(-16, 72) (i8, ptr @_ZTV20colvarproxy_replicas, i64 16), ptr %0, align 8, !tbaa !12
  %2 = getelementptr inbounds nuw i8, ptr %0, i64 16
  store i32 0, ptr %2, align 8, !tbaa !10
  %3 = getelementptr inbounds nuw i8, ptr %0, i64 20
  store i32 1, ptr %3, align 4, !tbaa !11
  ret void
}

; Function Attrs: mustprogress nofree norecurse nosync nounwind willreturn memory(none) uwtable
define void @_ZN20colvarproxy_replicasD2Ev(ptr nonnull readnone align 8 captures(none) %0) unnamed_addr #2 align 2 {
  ret void
}

; Function Attrs: nobuiltin nounwind
declare void @_ZdlPvm(ptr noundef, i64 noundef) local_unnamed_addr #4


!llvm.module.flags = !{!0, !1, !2, !3}

!0 = !{i32 1, !"wchar_size", i32 4}
!1 = !{i32 7, !"openmp", i32 51}
!2 = !{i32 8, !"PIC Level", i32 2}
!3 = !{i32 7, !"uwtable", i32 2}
!4 = !{!5, !6, i64 8}
!5 = !{!"_ZTS20colvarproxy_replicas", !6, i64 8, !9, i64 16, !9, i64 20}
!6 = !{!"any pointer", !7, i64 0}
!7 = !{!"omnipotent char", !8, i64 0}
!8 = !{!"Simple C++ TBAA"}
!9 = !{!"int", !7, i64 0}
!10 = !{!5, !9, i64 16}
!11 = !{!5, !9, i64 20}
!12 = !{!13, !13, i64 0}
!13 = !{!"vtable pointer", !8, i64 0}
